; Function Attrs: mustprogress nounwind uwtable
define dso_local void @_ZNK4llvm3pdb9PDBSymbol15findAllChildrenEv(ptr dead_on_unwind noalias writable sret(%"class.std::unique_ptr.12") align 8 %0, ptr nocapture noundef nonnull readonly align 8 dereferenceable(32) %1) local_unnamed_addr #2 align 2 {
  %3 = getelementptr inbounds nuw i8, ptr %1, i64 24
  %4 = load ptr, ptr %3, align 8, !noalias !17
  %5 = load ptr, ptr %4, align 8, !noalias !17
  %6 = getelementptr inbounds i8, ptr %5, i64 24
  %7 = load ptr, ptr %6, align 8, !noalias !17
  tail call void %7(ptr dead_on_unwind writable sret(%"class.std::unique_ptr.12") align 8 %0, ptr noundef nonnull align 8 dereferenceable(8) %4, i32 noundef 0) #12
  ret void
}